target datalayout = "e-m:e-p270:32:32-p271:32:32-p272:64:64-i64:64-i128:128-f80:128-n8:16:32:64-S128"
target triple = "x86_64-pc-linux-gnu"

%struct.WritebackContext = type { ptr, i32, [256 x %struct.PendingWriteback] }
%struct.PendingWriteback = type { %struct.buftag }
%struct.buftag = type { i32, i32, i32, i32, i32 }

@io_direct_flags = external global i32, align 4
@enableFsync = external global i8, align 1

; Function Attrs: nounwind uwtable
define dso_local void @ScheduleBufferTagForWriteback(ptr noundef %0, i32 noundef %1, ptr noundef %2) #0 {
  %4 = alloca ptr, align 8
  %5 = alloca i32, align 4
  %6 = alloca ptr, align 8
  %7 = alloca ptr, align 8
  %8 = alloca i32, align 4
  store ptr %0, ptr %4, align 8
  store i32 %1, ptr %5, align 4
  store ptr %2, ptr %6, align 8
  call void @llvm.lifetime.start.p0(i64 8, ptr %7) #10
  %9 = load i32, ptr @io_direct_flags, align 4
  %10 = and i32 %9, 1
  %11 = icmp ne i32 %10, 0
  br i1 %11, label %15, label %12

12:                                               ; preds = %3
  %13 = load i8, ptr @enableFsync, align 1, !range !4, !noundef !5
  %14 = trunc i8 %13 to i1
  br i1 %14, label %16, label %15

15:                                               ; preds = %12, %3
  store i32 1, ptr %8, align 4
  br label %47

16:                                               ; preds = %12
  %17 = load ptr, ptr %4, align 8
  %18 = getelementptr inbounds nuw %struct.WritebackContext, ptr %17, i32 0, i32 0
  %19 = load ptr, ptr %18, align 8
  %20 = load i32, ptr %19, align 4
  %21 = icmp sgt i32 %20, 0
  br i1 %21, label %22, label %34

22:                                               ; preds = %16
  %23 = load ptr, ptr %4, align 8
  %24 = getelementptr inbounds nuw %struct.WritebackContext, ptr %23, i32 0, i32 2
  %25 = load ptr, ptr %4, align 8
  %26 = getelementptr inbounds nuw %struct.WritebackContext, ptr %25, i32 0, i32 1
  %27 = load i32, ptr %26, align 8
  %28 = add i32 %27, 1
  store i32 %28, ptr %26, align 8
  %29 = sext i32 %27 to i64
  %30 = getelementptr inbounds [256 x %struct.PendingWriteback], ptr %24, i64 0, i64 %29
  store ptr %30, ptr %7, align 8
  %31 = load ptr, ptr %7, align 8
  %32 = getelementptr inbounds nuw %struct.PendingWriteback, ptr %31, i32 0, i32 0
  %33 = load ptr, ptr %6, align 8
  call void @llvm.memcpy.p0.p0.i64(ptr align 4 %32, ptr align 4 %33, i64 20, i1 false)
  br label %34

34:                                               ; preds = %22, %16
  %35 = load ptr, ptr %4, align 8
  %36 = getelementptr inbounds nuw %struct.WritebackContext, ptr %35, i32 0, i32 1
  %37 = load i32, ptr %36, align 8
  %38 = load ptr, ptr %4, align 8
  %39 = getelementptr inbounds nuw %struct.WritebackContext, ptr %38, i32 0, i32 0
  %40 = load ptr, ptr %39, align 8
  %41 = load i32, ptr %40, align 4
  %42 = icmp sge i32 %37, %41
  br i1 %42, label %43, label %46

43:                                               ; preds = %34
  %44 = load ptr, ptr %4, align 8
  %45 = load i32, ptr %5, align 4
  call void @IssuePendingWritebacks(ptr noundef %44, i32 noundef %45)
  br label %46

46:                                               ; preds = %43, %34
  store i32 0, ptr %8, align 4
  br label %47

47:                                               ; preds = %46, %15
  call void @llvm.lifetime.end.p0(i64 8, ptr %7) #10
  %48 = load i32, ptr %8, align 4
  switch i32 %48, label %50 [
    i32 0, label %49
    i32 1, label %49
  ]

49:                                               ; preds = %47, %47
  ret void

50:                                               ; preds = %47
  unreachable
}