; Function Attrs: nounwind uwtable
define dso_local void @ScheduleBufferTagForWriteback(ptr noundef %0, i32 noundef %1, ptr noundef readonly captures(none) %2) local_unnamed_addr #0 {
  %4 = load i32, ptr @io_direct_flags, align 4
  %5 = and i32 %4, 1
  %.not = icmp eq i32 %5, 0
  br i1 %.not, label %6, label %25

6:                                                ; preds = %3
  %7 = load i8, ptr @enableFsync, align 1, !range !5, !noundef !6
  %8 = trunc nuw i8 %7 to i1
  br i1 %8, label %9, label %25

9:                                                ; preds = %6
  %10 = load ptr, ptr %0, align 8
  %11 = load i32, ptr %10, align 4
  %12 = icmp sgt i32 %11, 0
  br i1 %12, label %13, label %20

13:                                               ; preds = %9
  %14 = getelementptr inbounds nuw i8, ptr %0, i64 12
  %15 = getelementptr inbounds nuw i8, ptr %0, i64 8
  %16 = load i32, ptr %15, align 8
  %17 = add i32 %16, 1
  store i32 %17, ptr %15, align 8
  %18 = sext i32 %16 to i64
  %19 = getelementptr inbounds [256 x %struct.PendingWriteback], ptr %14, i64 0, i64 %18
  tail call void @llvm.memcpy.p0.p0.i64(ptr noundef nonnull align 4 dereferenceable(20) %19, ptr noundef nonnull align 4 dereferenceable(20) %2, i64 20, i1 false)
  %.pre = load ptr, ptr %0, align 8
  %.pre9 = load i32, ptr %.pre, align 4
  br label %20

20:                                               ; preds = %13, %9
  %21 = phi i32 [ %.pre9, %13 ], [ %11, %9 ]
  %22 = getelementptr inbounds nuw i8, ptr %0, i64 8
  %23 = load i32, ptr %22, align 8
  %.not8 = icmp slt i32 %23, %21
  br i1 %.not8, label %25, label %24

24:                                               ; preds = %20
  tail call void @IssuePendingWritebacks(ptr noundef nonnull %0, i32 noundef %1)
  br label %25

25:                                               ; preds = %20, %24, %3, %6
  ret void
}